; Function Attrs: nounwind uwtable
define internal void @start_pass_coef(ptr noundef %0, i32 noundef %1) #0 {
  %3 = getelementptr inbounds i8, ptr %0, i64 456
  %4 = load ptr, ptr %3, align 8
  %.not = icmp eq i32 %1, 2
  br i1 %.not, label %10, label %5

5:                                                ; preds = %2
  %6 = load ptr, ptr %0, align 8
  %7 = getelementptr inbounds i8, ptr %6, i64 40
  store i32 4, ptr %7, align 8
  %8 = load ptr, ptr %0, align 8
  %9 = load ptr, ptr %8, align 8
  tail call void %9(ptr noundef nonnull %0) #3
  br label %10

10:                                               ; preds = %5, %2
  %11 = getelementptr inbounds i8, ptr %4, i64 32
  store i32 0, ptr %11, align 8
  %12 = load ptr, ptr %3, align 8
  %13 = getelementptr inbounds i8, ptr %0, i64 324
  %14 = load i32, ptr %13, align 4
  %15 = icmp sgt i32 %14, 1
  br i1 %15, label %16, label %18

16:                                               ; preds = %10
  %17 = getelementptr inbounds i8, ptr %12, i64 44
  store i32 1, ptr %17, align 4
  br label %start_iMCU_row.exit

18:                                               ; preds = %10
  %19 = getelementptr inbounds i8, ptr %12, i64 32
  %20 = load i32, ptr %19, align 8
  %21 = getelementptr inbounds i8, ptr %0, i64 320
  %22 = load i32, ptr %21, align 8
  %23 = add i32 %22, -1
  %24 = icmp ult i32 %20, %23
  %25 = getelementptr inbounds i8, ptr %0, i64 328
  %26 = load ptr, ptr %25, align 8
  %27 = getelementptr inbounds i8, ptr %12, i64 44
  br i1 %24, label %28, label %31

28:                                               ; preds = %18
  %29 = getelementptr inbounds i8, ptr %26, i64 12
  %30 = load i32, ptr %29, align 4
  store i32 %30, ptr %27, align 4
  br label %start_iMCU_row.exit

31:                                               ; preds = %18
  %32 = getelementptr inbounds i8, ptr %26, i64 72
  %33 = load i32, ptr %32, align 8
  store i32 %33, ptr %27, align 4
  br label %start_iMCU_row.exit

start_iMCU_row.exit:                              ; preds = %16, %28, %31
  %34 = getelementptr inbounds i8, ptr %12, i64 36
  store i32 0, ptr %34, align 4
  %35 = getelementptr inbounds i8, ptr %12, i64 40
  store i32 0, ptr %35, align 8
  ret void
}